((lp0
S'/home/koreanLipNet/KoreanLipNet/training/overlapped_speakers/s1/datasets/train/s1/ssssr'
p1
aS'/home/koreanLipNet/KoreanLipNet/training/overlapped_speakers/s1/datasets/train/s1/ssuso'
p2
aS'/home/koreanLipNet/KoreanLipNet/training/overlapped_speakers/s1/datasets/train/s1/ssbso'
p3
aS'/home/koreanLipNet/KoreanLipNet/training/overlapped_speakers/s1/datasets/train/s1/ssufo'
p4
aS'/home/koreanLipNet/KoreanLipNet/training/overlapped_speakers/s1/datasets/train/s1/ssbsr'
p5
aS'/home/koreanLipNet/KoreanLipNet/training/overlapped_speakers/s1/datasets/train/s1/ssboo'
p6
aS'/home/koreanLipNet/KoreanLipNet/training/overlapped_speakers/s1/datasets/train/s1/ssuor'
p7
aS'/home/koreanLipNet/KoreanLipNet/training/overlapped_speakers/s1/datasets/train/s1/sssfy'
p8
aS'/home/koreanLipNet/KoreanLipNet/training/overlapped_speakers/s1/datasets/train/s1/ssbfo'
p9
aS'/home/koreanLipNet/KoreanLipNet/training/overlapped_speakers/s1/datasets/train/s1/sssoy'
p10
aS'/home/koreanLipNet/KoreanLipNet/training/overlapped_speakers/s1/datasets/train/s1/ssufy'
p11
aS'/home/koreanLipNet/KoreanLipNet/training/overlapped_speakers/s1/datasets/train/s1/ssbsy'
p12
aS'/home/koreanLipNet/KoreanLipNet/training/overlapped_speakers/s1/datasets/train/s1/sssso'
p13
aS'/home/koreanLipNet/KoreanLipNet/training/overlapped_speakers/s1/datasets/train/s1/ssbfr'
p14
aS'/home/koreanLipNet/KoreanLipNet/training/overlapped_speakers/s1/datasets/train/s1/sssor'
p15
aS'/home/koreanLipNet/KoreanLipNet/training/overlapped_speakers/s1/datasets/train/s1/ssuoo'
p16
aS'/home/koreanLipNet/KoreanLipNet/training/overlapped_speakers/s1/datasets/train/s1/ssufr'
p17
aS'/home/koreanLipNet/KoreanLipNet/training/overlapped_speakers/s1/datasets/train/s1/ssboy'
p18
aS'/home/koreanLipNet/KoreanLipNet/training/overlapped_speakers/s1/datasets/train/s1/ssssy'
p19
aS'/home/koreanLipNet/KoreanLipNet/training/overlapped_speakers/s1/datasets/train/s1/ssusr'
p20
aS'/home/koreanLipNet/KoreanLipNet/training/overlapped_speakers/s1/datasets/train/s1/ssusy'
p21
aS'/home/koreanLipNet/KoreanLipNet/training/overlapped_speakers/s1/datasets/train/s1/ssbfy'
p22
aS'/home/koreanLipNet/KoreanLipNet/training/overlapped_speakers/s1/datasets/train/s1/ssbor'
p23
aS'/home/koreanLipNet/KoreanLipNet/training/overlapped_speakers/s1/datasets/train/s1/sssfr'
p24
aS'/home/koreanLipNet/KoreanLipNet/training/overlapped_speakers/s1/datasets/train/s1/sssoo'
p25
aS'/home/koreanLipNet/KoreanLipNet/training/overlapped_speakers/s1/datasets/train/s1/ssuoy'
p26
aS'/home/koreanLipNet/KoreanLipNet/training/overlapped_speakers/s1/datasets/train/s1/sssfo'
p27
a(lp28
S'/home/koreanLipNet/KoreanLipNet/training/overlapped_speakers/s1/datasets/val/s1/ssbfo'
p29
aS'/home/koreanLipNet/KoreanLipNet/training/overlapped_speakers/s1/datasets/val/s1/ssbfr'
p30
aS'/home/koreanLipNet/KoreanLipNet/training/overlapped_speakers/s1/datasets/val/s1/ssbfy'
p31
a(dp32
S'ssuoo'
p33
ccopy_reg
_reconstructor
p34
(clipnet.lipreading.aligns
Align
p35
c__builtin__
object
p36
Ntp37
Rp38
(dp39
S'sentence'
p40
V\uc57c\uad6c \ub2a6\uac8c \ub2e4\ud64d
p41
sS'label_func'
p42
clipnet.lipreading.helpers
text_to_labels
p43
sS'align'
p44
(lp45
(I10
I25
V\uc57c\uad6c
p46
tp47
a(I34
I51
V\ub2a6\uac8c
p48
tp49
a(I60
I74
V\ub2e4\ud64d
p50
tp51
asS'absolute_max_string_len'
p52
I32
sS'label'
p53
(lp54
I6524
aI364
aI11172
aI1702
aI140
aI11172
aI1764
aI10829
asS'padded_label'
p55
(lp56
I6524
aI364
aI11172
aI1702
aI140
aI11172
aI1764
aI10829
aI-1
aI-1
aI-1
aI-1
aI-1
aI-1
aI-1
aI-1
aI-1
aI-1
aI-1
aI-1
aI-1
aI-1
aI-1
aI-1
aI-1
aI-1
aI-1
aI-1
aI-1
aI-1
aI-1
aI-1
asbsS'ssusr'
p57
g34
(g35
g36
Ntp58
Rp59
(dp60
g40
V\uc57c\uad6c \ub2a6\uac8c \ub2e4\ud64d
p61
sg42
g43
sg44
(lp62
(I10
I25
V\uc57c\uad6c
p63
tp64
a(I34
I51
V\ub2a6\uac8c
p65
tp66
a(I60
I74
V\ub2e4\ud64d
p67
tp68
asg52
I32
sg53
(lp69
I6524
aI364
aI11172
aI1702
aI140
aI11172
aI1764
aI10829
asg55
(lp70
I6524
aI364
aI11172
aI1702
aI140
aI11172
aI1764
aI10829
aI-1
aI-1
aI-1
aI-1
aI-1
aI-1
aI-1
aI-1
aI-1
aI-1
aI-1
aI-1
aI-1
aI-1
aI-1
aI-1
aI-1
aI-1
aI-1
aI-1
aI-1
aI-1
aI-1
aI-1
asbsS'ssbsr'
p71
g34
(g35
g36
Ntp72
Rp73
(dp74
g40
V\uc57c\uad6c \ub2a6\uac8c \ub2e4\ud64d
p75
sg42
g43
sg44
(lp76
(I10
I25
V\uc57c\uad6c
p77
tp78
a(I34
I51
V\ub2a6\uac8c
p79
tp80
a(I60
I74
V\ub2e4\ud64d
p81
tp82
asg52
I32
sg53
(lp83
I6524
aI364
aI11172
aI1702
aI140
aI11172
aI1764
aI10829
asg55
(lp84
I6524
aI364
aI11172
aI1702
aI140
aI11172
aI1764
aI10829
aI-1
aI-1
aI-1
aI-1
aI-1
aI-1
aI-1
aI-1
aI-1
aI-1
aI-1
aI-1
aI-1
aI-1
aI-1
aI-1
aI-1
aI-1
aI-1
aI-1
aI-1
aI-1
aI-1
aI-1
asbsS'ssuoy'
p85
g34
(g35
g36
Ntp86
Rp87
(dp88
g40
V\uc57c\uad6c \ub2a6\uac8c \ub2e4\ud64d
p89
sg42
g43
sg44
(lp90
(I10
I25
V\uc57c\uad6c
p91
tp92
a(I34
I51
V\ub2a6\uac8c
p93
tp94
a(I60
I74
V\ub2e4\ud64d
p95
tp96
asg52
I32
sg53
(lp97
I6524
aI364
aI11172
aI1702
aI140
aI11172
aI1764
aI10829
asg55
(lp98
I6524
aI364
aI11172
aI1702
aI140
aI11172
aI1764
aI10829
aI-1
aI-1
aI-1
aI-1
aI-1
aI-1
aI-1
aI-1
aI-1
aI-1
aI-1
aI-1
aI-1
aI-1
aI-1
aI-1
aI-1
aI-1
aI-1
aI-1
aI-1
aI-1
aI-1
aI-1
asbsS'ssbsy'
p99
g34
(g35
g36
Ntp100
Rp101
(dp102
g40
V\uc57c\uad6c \ub2a6\uac8c \ub2e4\ud64d
p103
sg42
g43
sg44
(lp104
(I10
I25
V\uc57c\uad6c
p105
tp106
a(I34
I51
V\ub2a6\uac8c
p107
tp108
a(I60
I74
V\ub2e4\ud64d
p109
tp110
asg52
I32
sg53
(lp111
I6524
aI364
aI11172
aI1702
aI140
aI11172
aI1764
aI10829
asg55
(lp112
I6524
aI364
aI11172
aI1702
aI140
aI11172
aI1764
aI10829
aI-1
aI-1
aI-1
aI-1
aI-1
aI-1
aI-1
aI-1
aI-1
aI-1
aI-1
aI-1
aI-1
aI-1
aI-1
aI-1
aI-1
aI-1
aI-1
aI-1
aI-1
aI-1
aI-1
aI-1
asbsS'ssusy'
p113
g34
(g35
g36
Ntp114
Rp115
(dp116
g40
V\uc57c\uad6c \ub2a6\uac8c \ub2e4\ud64d
p117
sg42
g43
sg44
(lp118
(I10
I25
V\uc57c\uad6c
p119
tp120
a(I34
I51
V\ub2a6\uac8c
p121
tp122
a(I60
I74
V\ub2e4\ud64d
p123
tp124
asg52
I32
sg53
(lp125
I6524
aI364
aI11172
aI1702
aI140
aI11172
aI1764
aI10829
asg55
(lp126
I6524
aI364
aI11172
aI1702
aI140
aI11172
aI1764
aI10829
aI-1
aI-1
aI-1
aI-1
aI-1
aI-1
aI-1
aI-1
aI-1
aI-1
aI-1
aI-1
aI-1
aI-1
aI-1
aI-1
aI-1
aI-1
aI-1
aI-1
aI-1
aI-1
aI-1
aI-1
asbsS'ssssr'
p127
g34
(g35
g36
Ntp128
Rp129
(dp130
g40
V\uc57c\uad6c \ub2a6\uac8c \ub2e4\ud64d
p131
sg42
g43
sg44
(lp132
(I10
I25
V\uc57c\uad6c
p133
tp134
a(I34
I51
V\ub2a6\uac8c
p135
tp136
a(I60
I74
V\ub2e4\ud64d
p137
tp138
asg52
I32
sg53
(lp139
I6524
aI364
aI11172
aI1702
aI140
aI11172
aI1764
aI10829
asg55
(lp140
I6524
aI364
aI11172
aI1702
aI140
aI11172
aI1764
aI10829
aI-1
aI-1
aI-1
aI-1
aI-1
aI-1
aI-1
aI-1
aI-1
aI-1
aI-1
aI-1
aI-1
aI-1
aI-1
aI-1
aI-1
aI-1
aI-1
aI-1
aI-1
aI-1
aI-1
aI-1
asbsS'sssso'
p141
g34
(g35
g36
Ntp142
Rp143
(dp144
g40
V\uc57c\uad6c \ub2a6\uac8c \ub2e4\ud64d
p145
sg42
g43
sg44
(lp146
(I10
I25
V\uc57c\uad6c
p147
tp148
a(I34
I51
V\ub2a6\uac8c
p149
tp150
a(I60
I74
V\ub2e4\ud64d
p151
tp152
asg52
I32
sg53
(lp153
I6524
aI364
aI11172
aI1702
aI140
aI11172
aI1764
aI10829
asg55
(lp154
I6524
aI364
aI11172
aI1702
aI140
aI11172
aI1764
aI10829
aI-1
aI-1
aI-1
aI-1
aI-1
aI-1
aI-1
aI-1
aI-1
aI-1
aI-1
aI-1
aI-1
aI-1
aI-1
aI-1
aI-1
aI-1
aI-1
aI-1
aI-1
aI-1
aI-1
aI-1
asbsS'ssuso'
p155
g34
(g35
g36
Ntp156
Rp157
(dp158
g40
V\uc57c\uad6c \ub2a6\uac8c \ub2e4\ud64d
p159
sg42
g43
sg44
(lp160
(I10
I25
V\uc57c\uad6c
p161
tp162
a(I34
I51
V\ub2a6\uac8c
p163
tp164
a(I60
I74
V\ub2e4\ud64d
p165
tp166
asg52
I32
sg53
(lp167
I6524
aI364
aI11172
aI1702
aI140
aI11172
aI1764
aI10829
asg55
(lp168
I6524
aI364
aI11172
aI1702
aI140
aI11172
aI1764
aI10829
aI-1
aI-1
aI-1
aI-1
aI-1
aI-1
aI-1
aI-1
aI-1
aI-1
aI-1
aI-1
aI-1
aI-1
aI-1
aI-1
aI-1
aI-1
aI-1
aI-1
aI-1
aI-1
aI-1
aI-1
asbsS'ssuor'
p169
g34
(g35
g36
Ntp170
Rp171
(dp172
g40
V\uc57c\uad6c \ub2a6\uac8c \ub2e4\ud64d
p173
sg42
g43
sg44
(lp174
(I10
I25
V\uc57c\uad6c
p175
tp176
a(I34
I51
V\ub2a6\uac8c
p177
tp178
a(I60
I74
V\ub2e4\ud64d
p179
tp180
asg52
I32
sg53
(lp181
I6524
aI364
aI11172
aI1702
aI140
aI11172
aI1764
aI10829
asg55
(lp182
I6524
aI364
aI11172
aI1702
aI140
aI11172
aI1764
aI10829
aI-1
aI-1
aI-1
aI-1
aI-1
aI-1
aI-1
aI-1
aI-1
aI-1
aI-1
aI-1
aI-1
aI-1
aI-1
aI-1
aI-1
aI-1
aI-1
aI-1
aI-1
aI-1
aI-1
aI-1
asbsS'ssbso'
p183
g34
(g35
g36
Ntp184
Rp185
(dp186
g40
V\uc57c\uad6c \ub2a6\uac8c \ub2e4\ud64d
p187
sg42
g43
sg44
(lp188
(I10
I25
V\uc57c\uad6c
p189
tp190
a(I34
I51
V\ub2a6\uac8c
p191
tp192
a(I60
I74
V\ub2e4\ud64d
p193
tp194
asg52
I32
sg53
(lp195
I6524
aI364
aI11172
aI1702
aI140
aI11172
aI1764
aI10829
asg55
(lp196
I6524
aI364
aI11172
aI1702
aI140
aI11172
aI1764
aI10829
aI-1
aI-1
aI-1
aI-1
aI-1
aI-1
aI-1
aI-1
aI-1
aI-1
aI-1
aI-1
aI-1
aI-1
aI-1
aI-1
aI-1
aI-1
aI-1
aI-1
aI-1
aI-1
aI-1
aI-1
asbsS'ssbfr'
p197
g34
(g35
g36
Ntp198
Rp199
(dp200
g40
V\uc57c\uad6c \ub2a6\uac8c \ub2e4\ud64d
p201
sg42
g43
sg44
(lp202
(I10
I25
V\uc57c\uad6c
p203
tp204
a(I34
I51
V\ub2a6\uac8c
p205
tp206
a(I60
I74
V\ub2e4\ud64d
p207
tp208
asg52
I32
sg53
(lp209
I6524
aI364
aI11172
aI1702
aI140
aI11172
aI1764
aI10829
asg55
(lp210
I6524
aI364
aI11172
aI1702
aI140
aI11172
aI1764
aI10829
aI-1
aI-1
aI-1
aI-1
aI-1
aI-1
aI-1
aI-1
aI-1
aI-1
aI-1
aI-1
aI-1
aI-1
aI-1
aI-1
aI-1
aI-1
aI-1
aI-1
aI-1
aI-1
aI-1
aI-1
asbsS'ssssy'
p211
g34
(g35
g36
Ntp212
Rp213
(dp214
g40
V\uc57c\uad6c \ub2a6\uac8c \ub2e4\ud64d
p215
sg42
g43
sg44
(lp216
(I10
I25
V\uc57c\uad6c
p217
tp218
a(I34
I51
V\ub2a6\uac8c
p219
tp220
a(I60
I74
V\ub2e4\ud64d
p221
tp222
asg52
I32
sg53
(lp223
I6524
aI364
aI11172
aI1702
aI140
aI11172
aI1764
aI10829
asg55
(lp224
I6524
aI364
aI11172
aI1702
aI140
aI11172
aI1764
aI10829
aI-1
aI-1
aI-1
aI-1
aI-1
aI-1
aI-1
aI-1
aI-1
aI-1
aI-1
aI-1
aI-1
aI-1
aI-1
aI-1
aI-1
aI-1
aI-1
aI-1
aI-1
aI-1
aI-1
aI-1
asbsS'sssoy'
p225
g34
(g35
g36
Ntp226
Rp227
(dp228
g40
V\uc57c\uad6c \ub2a6\uac8c \ub2e4\ud64d
p229
sg42
g43
sg44
(lp230
(I10
I25
V\uc57c\uad6c
p231
tp232
a(I34
I51
V\ub2a6\uac8c
p233
tp234
a(I60
I74
V\ub2e4\ud64d
p235
tp236
asg52
I32
sg53
(lp237
I6524
aI364
aI11172
aI1702
aI140
aI11172
aI1764
aI10829
asg55
(lp238
I6524
aI364
aI11172
aI1702
aI140
aI11172
aI1764
aI10829
aI-1
aI-1
aI-1
aI-1
aI-1
aI-1
aI-1
aI-1
aI-1
aI-1
aI-1
aI-1
aI-1
aI-1
aI-1
aI-1
aI-1
aI-1
aI-1
aI-1
aI-1
aI-1
aI-1
aI-1
asbsS'ssbfy'
p239
g34
(g35
g36
Ntp240
Rp241
(dp242
g40
V\uc57c\uad6c \ub2a6\uac8c \ub2e4\ud64d
p243
sg42
g43
sg44
(lp244
(I10
I25
V\uc57c\uad6c
p245
tp246
a(I34
I51
V\ub2a6\uac8c
p247
tp248
a(I60
I74
V\ub2e4\ud64d
p249
tp250
asg52
I32
sg53
(lp251
I6524
aI364
aI11172
aI1702
aI140
aI11172
aI1764
aI10829
asg55
(lp252
I6524
aI364
aI11172
aI1702
aI140
aI11172
aI1764
aI10829
aI-1
aI-1
aI-1
aI-1
aI-1
aI-1
aI-1
aI-1
aI-1
aI-1
aI-1
aI-1
aI-1
aI-1
aI-1
aI-1
aI-1
aI-1
aI-1
aI-1
aI-1
aI-1
aI-1
aI-1
asbsS'sssor'
p253
g34
(g35
g36
Ntp254
Rp255
(dp256
g40
V\uc57c\uad6c \ub2a6\uac8c \ub2e4\ud64d
p257
sg42
g43
sg44
(lp258
(I10
I25
V\uc57c\uad6c
p259
tp260
a(I34
I51
V\ub2a6\uac8c
p261
tp262
a(I60
I74
V\ub2e4\ud64d
p263
tp264
asg52
I32
sg53
(lp265
I6524
aI364
aI11172
aI1702
aI140
aI11172
aI1764
aI10829
asg55
(lp266
I6524
aI364
aI11172
aI1702
aI140
aI11172
aI1764
aI10829
aI-1
aI-1
aI-1
aI-1
aI-1
aI-1
aI-1
aI-1
aI-1
aI-1
aI-1
aI-1
aI-1
aI-1
aI-1
aI-1
aI-1
aI-1
aI-1
aI-1
aI-1
aI-1
aI-1
aI-1
asbsS'sssoo'
p267
g34
(g35
g36
Ntp268
Rp269
(dp270
g40
V\uc57c\uad6c \ub2a6\uac8c \ub2e4\ud64d
p271
sg42
g43
sg44
(lp272
(I10
I25
V\uc57c\uad6c
p273
tp274
a(I34
I51
V\ub2a6\uac8c
p275
tp276
a(I60
I74
V\ub2e4\ud64d
p277
tp278
asg52
I32
sg53
(lp279
I6524
aI364
aI11172
aI1702
aI140
aI11172
aI1764
aI10829
asg55
(lp280
I6524
aI364
aI11172
aI1702
aI140
aI11172
aI1764
aI10829
aI-1
aI-1
aI-1
aI-1
aI-1
aI-1
aI-1
aI-1
aI-1
aI-1
aI-1
aI-1
aI-1
aI-1
aI-1
aI-1
aI-1
aI-1
aI-1
aI-1
aI-1
aI-1
aI-1
aI-1
asbsS'ssbfo'
p281
g34
(g35
g36
Ntp282
Rp283
(dp284
g40
V\uc57c\uad6c \ub2a6\uac8c \ub2e4\ud64d
p285
sg42
g43
sg44
(lp286
(I10
I25
V\uc57c\uad6c
p287
tp288
a(I34
I51
V\ub2a6\uac8c
p289
tp290
a(I60
I74
V\ub2e4\ud64d
p291
tp292
asg52
I32
sg53
(lp293
I6524
aI364
aI11172
aI1702
aI140
aI11172
aI1764
aI10829
asg55
(lp294
I6524
aI364
aI11172
aI1702
aI140
aI11172
aI1764
aI10829
aI-1
aI-1
aI-1
aI-1
aI-1
aI-1
aI-1
aI-1
aI-1
aI-1
aI-1
aI-1
aI-1
aI-1
aI-1
aI-1
aI-1
aI-1
aI-1
aI-1
aI-1
aI-1
aI-1
aI-1
asbsS'ssbor'
p295
g34
(g35
g36
Ntp296
Rp297
(dp298
g40
V\uc57c\uad6c \ub2a6\uac8c \ub2e4\ud64d
p299
sg42
g43
sg44
(lp300
(I10
I25
V\uc57c\uad6c
p301
tp302
a(I34
I51
V\ub2a6\uac8c
p303
tp304
a(I60
I74
V\ub2e4\ud64d
p305
tp306
asg52
I32
sg53
(lp307
I6524
aI364
aI11172
aI1702
aI140
aI11172
aI1764
aI10829
asg55
(lp308
I6524
aI364
aI11172
aI1702
aI140
aI11172
aI1764
aI10829
aI-1
aI-1
aI-1
aI-1
aI-1
aI-1
aI-1
aI-1
aI-1
aI-1
aI-1
aI-1
aI-1
aI-1
aI-1
aI-1
aI-1
aI-1
aI-1
aI-1
aI-1
aI-1
aI-1
aI-1
asbsS'ssboy'
p309
g34
(g35
g36
Ntp310
Rp311
(dp312
g40
V\uc57c\uad6c \ub2a6\uac8c \ub2e4\ud64d
p313
sg42
g43
sg44
(lp314
(I10
I25
V\uc57c\uad6c
p315
tp316
a(I34
I51
V\ub2a6\uac8c
p317
tp318
a(I60
I74
V\ub2e4\ud64d
p319
tp320
asg52
I32
sg53
(lp321
I6524
aI364
aI11172
aI1702
aI140
aI11172
aI1764
aI10829
asg55
(lp322
I6524
aI364
aI11172
aI1702
aI140
aI11172
aI1764
aI10829
aI-1
aI-1
aI-1
aI-1
aI-1
aI-1
aI-1
aI-1
aI-1
aI-1
aI-1
aI-1
aI-1
aI-1
aI-1
aI-1
aI-1
aI-1
aI-1
aI-1
aI-1
aI-1
aI-1
aI-1
asbsS'ssboo'
p323
g34
(g35
g36
Ntp324
Rp325
(dp326
g40
V\uc57c\uad6c \ub2a6\uac8c \ub2e4\ud64d
p327
sg42
g43
sg44
(lp328
(I10
I25
V\uc57c\uad6c
p329
tp330
a(I34
I51
V\ub2a6\uac8c
p331
tp332
a(I60
I74
V\ub2e4\ud64d
p333
tp334
asg52
I32
sg53
(lp335
I6524
aI364
aI11172
aI1702
aI140
aI11172
aI1764
aI10829
asg55
(lp336
I6524
aI364
aI11172
aI1702
aI140
aI11172
aI1764
aI10829
aI-1
aI-1
aI-1
aI-1
aI-1
aI-1
aI-1
aI-1
aI-1
aI-1
aI-1
aI-1
aI-1
aI-1
aI-1
aI-1
aI-1
aI-1
aI-1
aI-1
aI-1
aI-1
aI-1
aI-1
asbsS'ssufr'
p337
g34
(g35
g36
Ntp338
Rp339
(dp340
g40
V\uc57c\uad6c \ub2a6\uac8c \ub2e4\ud64d
p341
sg42
g43
sg44
(lp342
(I10
I25
V\uc57c\uad6c
p343
tp344
a(I34
I51
V\ub2a6\uac8c
p345
tp346
a(I60
I74
V\ub2e4\ud64d
p347
tp348
asg52
I32
sg53
(lp349
I6524
aI364
aI11172
aI1702
aI140
aI11172
aI1764
aI10829
asg55
(lp350
I6524
aI364
aI11172
aI1702
aI140
aI11172
aI1764
aI10829
aI-1
aI-1
aI-1
aI-1
aI-1
aI-1
aI-1
aI-1
aI-1
aI-1
aI-1
aI-1
aI-1
aI-1
aI-1
aI-1
aI-1
aI-1
aI-1
aI-1
aI-1
aI-1
aI-1
aI-1
asbsS'ssufy'
p351
g34
(g35
g36
Ntp352
Rp353
(dp354
g40
V\uc57c\uad6c \ub2a6\uac8c \ub2e4\ud64d
p355
sg42
g43
sg44
(lp356
(I10
I25
V\uc57c\uad6c
p357
tp358
a(I34
I51
V\ub2a6\uac8c
p359
tp360
a(I60
I74
V\ub2e4\ud64d
p361
tp362
asg52
I32
sg53
(lp363
I6524
aI364
aI11172
aI1702
aI140
aI11172
aI1764
aI10829
asg55
(lp364
I6524
aI364
aI11172
aI1702
aI140
aI11172
aI1764
aI10829
aI-1
aI-1
aI-1
aI-1
aI-1
aI-1
aI-1
aI-1
aI-1
aI-1
aI-1
aI-1
aI-1
aI-1
aI-1
aI-1
aI-1
aI-1
aI-1
aI-1
aI-1
aI-1
aI-1
aI-1
asbsS'sssfr'
p365
g34
(g35
g36
Ntp366
Rp367
(dp368
g40
V\uc57c\uad6c \ub2a6\uac8c \ub2e4\ud64d
p369
sg42
g43
sg44
(lp370
(I10
I25
V\uc57c\uad6c
p371
tp372
a(I34
I51
V\ub2a6\uac8c
p373
tp374
a(I60
I74
V\ub2e4\ud64d
p375
tp376
asg52
I32
sg53
(lp377
I6524
aI364
aI11172
aI1702
aI140
aI11172
aI1764
aI10829
asg55
(lp378
I6524
aI364
aI11172
aI1702
aI140
aI11172
aI1764
aI10829
aI-1
aI-1
aI-1
aI-1
aI-1
aI-1
aI-1
aI-1
aI-1
aI-1
aI-1
aI-1
aI-1
aI-1
aI-1
aI-1
aI-1
aI-1
aI-1
aI-1
aI-1
aI-1
aI-1
aI-1
asbsS'sssfo'
p379
g34
(g35
g36
Ntp380
Rp381
(dp382
g40
V\uc57c\uad6c \ub2a6\uac8c \ub2e4\ud64d
p383
sg42
g43
sg44
(lp384
(I10
I25
V\uc57c\uad6c
p385
tp386
a(I34
I51
V\ub2a6\uac8c
p387
tp388
a(I60
I74
V\ub2e4\ud64d
p389
tp390
asg52
I32
sg53
(lp391
I6524
aI364
aI11172
aI1702
aI140
aI11172
aI1764
aI10829
asg55
(lp392
I6524
aI364
aI11172
aI1702
aI140
aI11172
aI1764
aI10829
aI-1
aI-1
aI-1
aI-1
aI-1
aI-1
aI-1
aI-1
aI-1
aI-1
aI-1
aI-1
aI-1
aI-1
aI-1
aI-1
aI-1
aI-1
aI-1
aI-1
aI-1
aI-1
aI-1
aI-1
asbsS'ssufo'
p393
g34
(g35
g36
Ntp394
Rp395
(dp396
g40
V\uc57c\uad6c \ub2a6\uac8c \ub2e4\ud64d
p397
sg42
g43
sg44
(lp398
(I10
I25
V\uc57c\uad6c
p399
tp400
a(I34
I51
V\ub2a6\uac8c
p401
tp402
a(I60
I74
V\ub2e4\ud64d
p403
tp404
asg52
I32
sg53
(lp405
I6524
aI364
aI11172
aI1702
aI140
aI11172
aI1764
aI10829
asg55
(lp406
I6524
aI364
aI11172
aI1702
aI140
aI11172
aI1764
aI10829
aI-1
aI-1
aI-1
aI-1
aI-1
aI-1
aI-1
aI-1
aI-1
aI-1
aI-1
aI-1
aI-1
aI-1
aI-1
aI-1
aI-1
aI-1
aI-1
aI-1
aI-1
aI-1
aI-1
aI-1
asbsS'sssfy'
p407
g34
(g35
g36
Ntp408
Rp409
(dp410
g40
V\uc57c\uad6c \ub2a6\uac8c \ub2e4\ud64d
p411
sg42
g43
sg44
(lp412
(I10
I25
V\uc57c\uad6c
p413
tp414
a(I34
I51
V\ub2a6\uac8c
p415
tp416
a(I60
I74
V\ub2e4\ud64d
p417
tp418
asg52
I32
sg53
(lp419
I6524
aI364
aI11172
aI1702
aI140
aI11172
aI1764
aI10829
asg55
(lp420
I6524
aI364
aI11172
aI1702
aI140
aI11172
aI1764
aI10829
aI-1
aI-1
aI-1
aI-1
aI-1
aI-1
aI-1
aI-1
aI-1
aI-1
aI-1
aI-1
aI-1
aI-1
aI-1
aI-1
aI-1
aI-1
aI-1
aI-1
aI-1
aI-1
aI-1
aI-1
asbstp421
.